target datalayout = "e-m:e-p270:32:32-p271:32:32-p272:64:64-i64:64-i128:128-f80:128-n8:16:32:64-S128"
target triple = "x86_64-pc-linux-gnu"

%struct.MPVEncContext = type { %struct.MpegEncContext, %struct.PutBitContext, i32, i32, ptr, i32, i32, i32, i32, i32, i32, i32, i32, ptr, ptr, %struct.FDCTDSPContext, %struct.MpegvideoEncDSPContext, %struct.PixblockDSPContext, %struct.MotionEstContext, i32, i32, ptr, ptr, ptr, ptr, ptr, ptr, [2 x [2 x [2 x ptr]]], [2 x ptr], [2 x [2 x ptr]], ptr, ptr, ptr, ptr, [3 x i64], i32, i32, i32, i32, i32, ptr, ptr, ptr, ptr, ptr, ptr, ptr, [12 x i32], ptr, ptr, ptr, ptr, ptr, ptr, ptr, ptr, [2 x i32], ptr, i32, i32, i32, i32, i32, i32, i32, i32, i32, i32, ptr, ptr, i32, i32, %struct.PutBitContext, %struct.PutBitContext, i32, i32, i32, i32, ptr, ptr, ptr, [2 x ptr], [2 x ptr], [2 x ptr], [2 x ptr], ptr, i32 }
%struct.MpegEncContext = type { ptr, i32, i32, i32, [12 x i32], i32, %struct.ScanTable, %struct.ScanTable, [64 x i8], [64 x i8], ptr, ptr, i32, i32, i32, i32, i32, i32, i32, i32, i32, i32, i32, i32, i32, i32, i32, i32, i32, i32, i32, i32, i64, i64, ptr, %struct.BufferPoolContext, i32, i32, %union.anon, i32, %struct.MPVWorkPicture, %struct.MPVWorkPicture, %struct.MPVWorkPicture, i32, [3 x i32], ptr, [3 x ptr], ptr, ptr, ptr, ptr, ptr, ptr, [3 x ptr], i32, ptr, ptr, ptr, ptr, %struct.ScratchpadContext, i32, i32, i32, i32, i32, i32, %struct.BlockDSPContext, %struct.H264ChromaContext, %struct.HpelDSPContext, %struct.IDCTDSPContext, %struct.QpelDSPContext, %struct.VideoDSPContext, %struct.H263DSPContext, ptr, [2 x [2 x ptr]], i32, i32, [2 x [4 x [2 x i32]]], [2 x [2 x i32]], [2 x [2 x [2 x i32]]], [2 x [64 x i16]], i32, i32, i32, i32, i32, [6 x i32], [6 x i32], [3 x ptr], ptr, [64 x i16], [64 x i16], [64 x i16], [64 x i16], i32, i32, %struct.GetBitContext, i32, i32, i32, i32, i32, i32, i32, i32, i32, i32, i32, i32, i32, i32, i32, i64, i64, i16, i16, i16, i16, i32, i32, i32, i32, i32, i32, i32, i32, i32, [3 x i32], i32, i32, i32, i32, i32, i32, %struct.GetBitContext, i32, [2 x [2 x i32]], i32, i32, i32, i32, i32, i32, i32, i32, i32, i32, i32, i32, i32, i32, [2 x i32], i32, i32, ptr, ptr, ptr, ptr, ptr, i32, i32, %struct.ERContext }
%struct.ScanTable = type { ptr, [64 x i8], [64 x i8] }
%struct.BufferPoolContext = type { ptr, ptr, ptr, ptr, ptr, i32, i32, i32 }
%union.anon = type { [32 x ptr] }
%struct.MPVWorkPicture = type { [3 x ptr], [3 x i64], ptr, ptr, [2 x ptr], ptr, ptr, [2 x ptr], i32 }
%struct.ScratchpadContext = type { ptr, ptr, %union.anon.0, i32 }
%union.anon.0 = type { ptr }
%struct.BlockDSPContext = type { ptr, ptr, [2 x ptr] }
%struct.H264ChromaContext = type { [4 x ptr], [4 x ptr] }
%struct.HpelDSPContext = type { [4 x [4 x ptr]], [4 x [4 x ptr]], [4 x [4 x ptr]], [4 x ptr] }
%struct.IDCTDSPContext = type { ptr, ptr, ptr, ptr, ptr, ptr, [64 x i8], i32, i32 }
%struct.QpelDSPContext = type { [2 x [16 x ptr]], [2 x [16 x ptr]], [2 x [16 x ptr]] }
%struct.VideoDSPContext = type { ptr, ptr }
%struct.H263DSPContext = type { ptr, ptr }
%struct.GetBitContext = type { ptr, ptr, i32, i32, i32 }
%struct.ERContext = type { ptr, ptr, i32, ptr, i32, i32, i32, i64, i64, i32, i32, ptr, ptr, [3 x ptr], ptr, ptr, [2 x [4 x [2 x i32]]], %struct.ERPicture, %struct.ERPicture, %struct.ERPicture, [2 x ptr], [2 x ptr], i16, i16, i32, i32, ptr, ptr }
%struct.ERPicture = type { ptr, ptr, ptr, [2 x ptr], [2 x ptr], ptr, i32 }
%struct.FDCTDSPContext = type { ptr, ptr }
%struct.MpegvideoEncDSPContext = type { ptr, ptr, ptr, ptr, [4 x ptr], ptr }
%struct.PixblockDSPContext = type { ptr, ptr, ptr, ptr }
%struct.MotionEstContext = type { ptr, i32, i32, [4 x [2 x i32]], [4 x [2 x i32]], ptr, ptr, i32, i32, i32, i32, i32, i32, i32, i32, i32, i32, i32, i32, i32, i32, i32, i32, [4 x [4 x ptr]], [4 x [4 x ptr]], i32, i32, i64, i64, i32, [6 x ptr], [6 x ptr], [6 x ptr], [6 x ptr], [2 x [4 x ptr]], ptr, ptr, ptr, ptr, ptr, ptr, ptr, ptr, [64 x i32], [64 x i32] }
%struct.PutBitContext = type { i32, i32, ptr, ptr, ptr }

@ff_mba_max = external constant [6 x i16], align 2
@ff_mba_length = external constant [7 x i8], align 1
@.str.5 = private unnamed_addr constant [43 x i8] c"Internal error, put_bits buffer too small\0A\00", align 1

; Function Attrs: alwaysinline nounwind willreturn memory(none) uwtable
define internal i32 @av_bswap32(i32 noundef %0) #8 {
  %2 = alloca i32, align 4
  store i32 %0, ptr %2, align 4, !tbaa !9
  %3 = load i32, ptr %2, align 4, !tbaa !9
  %4 = shl i32 %3, 8
  %5 = and i32 %4, 65280
  %6 = load i32, ptr %2, align 4, !tbaa !9
  %7 = lshr i32 %6, 8
  %8 = and i32 %7, 255
  %9 = or i32 %5, %8
  %10 = shl i32 %9, 16
  %11 = load i32, ptr %2, align 4, !tbaa !9
  %12 = lshr i32 %11, 16
  %13 = shl i32 %12, 8
  %14 = and i32 %13, 65280
  %15 = load i32, ptr %2, align 4, !tbaa !9
  %16 = lshr i32 %15, 16
  %17 = lshr i32 %16, 8
  %18 = and i32 %17, 255
  %19 = or i32 %14, %18
  %20 = or i32 %10, %19
  ret i32 %20
}

; Function Attrs: inlinehint nounwind uwtable
define internal void @put_bits_no_assert(ptr noundef %0, i32 noundef %1, i32 noundef %2) #3 {
  %4 = alloca ptr, align 8
  %5 = alloca i32, align 4
  %6 = alloca i32, align 4
  %7 = alloca i32, align 4
  %8 = alloca i32, align 4
  store ptr %0, ptr %4, align 8, !tbaa !4
  store i32 %1, ptr %5, align 4, !tbaa !9
  store i32 %2, ptr %6, align 4, !tbaa !9
  call void @llvm.lifetime.start.p0(i64 4, ptr %7) #11
  call void @llvm.lifetime.start.p0(i64 4, ptr %8) #11
  %9 = load ptr, ptr %4, align 8, !tbaa !4
  %10 = getelementptr inbounds nuw %struct.PutBitContext, ptr %9, i32 0, i32 0
  %11 = load i32, ptr %10, align 8, !tbaa !156
  store i32 %11, ptr %7, align 4, !tbaa !9
  %12 = load ptr, ptr %4, align 8, !tbaa !4
  %13 = getelementptr inbounds nuw %struct.PutBitContext, ptr %12, i32 0, i32 1
  %14 = load i32, ptr %13, align 4, !tbaa !157
  store i32 %14, ptr %8, align 4, !tbaa !9
  %15 = load i32, ptr %5, align 4, !tbaa !9
  %16 = load i32, ptr %8, align 4, !tbaa !9
  %17 = icmp slt i32 %15, %16
  br i1 %17, label %18, label %27

18:                                               ; preds = %3
  %19 = load i32, ptr %7, align 4, !tbaa !9
  %20 = load i32, ptr %5, align 4, !tbaa !9
  %21 = shl i32 %19, %20
  %22 = load i32, ptr %6, align 4, !tbaa !9
  %23 = or i32 %21, %22
  store i32 %23, ptr %7, align 4, !tbaa !9
  %24 = load i32, ptr %5, align 4, !tbaa !9
  %25 = load i32, ptr %8, align 4, !tbaa !9
  %26 = sub nsw i32 %25, %24
  store i32 %26, ptr %8, align 4, !tbaa !9
  br label %65

27:                                               ; preds = %3
  %28 = load i32, ptr %8, align 4, !tbaa !9
  %29 = load i32, ptr %7, align 4, !tbaa !9
  %30 = shl i32 %29, %28
  store i32 %30, ptr %7, align 4, !tbaa !9
  %31 = load i32, ptr %6, align 4, !tbaa !9
  %32 = load i32, ptr %5, align 4, !tbaa !9
  %33 = load i32, ptr %8, align 4, !tbaa !9
  %34 = sub nsw i32 %32, %33
  %35 = lshr i32 %31, %34
  %36 = load i32, ptr %7, align 4, !tbaa !9
  %37 = or i32 %36, %35
  store i32 %37, ptr %7, align 4, !tbaa !9
  %38 = load ptr, ptr %4, align 8, !tbaa !4
  %39 = getelementptr inbounds nuw %struct.PutBitContext, ptr %38, i32 0, i32 4
  %40 = load ptr, ptr %39, align 8, !tbaa !158
  %41 = load ptr, ptr %4, align 8, !tbaa !4
  %42 = getelementptr inbounds nuw %struct.PutBitContext, ptr %41, i32 0, i32 3
  %43 = load ptr, ptr %42, align 8, !tbaa !159
  %44 = ptrtoint ptr %40 to i64
  %45 = ptrtoint ptr %43 to i64
  %46 = sub i64 %44, %45
  %47 = icmp uge i64 %46, 4
  br i1 %47, label %48, label %58

48:                                               ; preds = %27
  %49 = load i32, ptr %7, align 4, !tbaa !9
  %50 = call i32 @av_bswap32(i32 noundef %49) #12
  %51 = load ptr, ptr %4, align 8, !tbaa !4
  %52 = getelementptr inbounds nuw %struct.PutBitContext, ptr %51, i32 0, i32 3
  %53 = load ptr, ptr %52, align 8, !tbaa !159
  store i32 %50, ptr %53, align 1, !tbaa !11
  %54 = load ptr, ptr %4, align 8, !tbaa !4
  %55 = getelementptr inbounds nuw %struct.PutBitContext, ptr %54, i32 0, i32 3
  %56 = load ptr, ptr %55, align 8, !tbaa !159
  %57 = getelementptr inbounds nuw i8, ptr %56, i64 4
  store ptr %57, ptr %55, align 8, !tbaa !159
  br label %59

58:                                               ; preds = %27
  call void (ptr, i32, ptr, ...) @av_log(ptr noundef null, i32 noundef 16, ptr noundef @.str.5)
  br label %59

59:                                               ; preds = %58, %48
  %60 = load i32, ptr %5, align 4, !tbaa !9
  %61 = sub nsw i32 32, %60
  %62 = load i32, ptr %8, align 4, !tbaa !9
  %63 = add nsw i32 %62, %61
  store i32 %63, ptr %8, align 4, !tbaa !9
  %64 = load i32, ptr %6, align 4, !tbaa !9
  store i32 %64, ptr %7, align 4, !tbaa !9
  br label %65

65:                                               ; preds = %59, %18
  %66 = load i32, ptr %7, align 4, !tbaa !9
  %67 = load ptr, ptr %4, align 8, !tbaa !4
  %68 = getelementptr inbounds nuw %struct.PutBitContext, ptr %67, i32 0, i32 0
  store i32 %66, ptr %68, align 8, !tbaa !156
  %69 = load i32, ptr %8, align 4, !tbaa !9
  %70 = load ptr, ptr %4, align 8, !tbaa !4
  %71 = getelementptr inbounds nuw %struct.PutBitContext, ptr %70, i32 0, i32 1
  store i32 %69, ptr %71, align 4, !tbaa !157
  call void @llvm.lifetime.end.p0(i64 4, ptr %8) #11
  call void @llvm.lifetime.end.p0(i64 4, ptr %7) #11
  ret void
}

; Function Attrs: inlinehint nounwind uwtable
define internal void @put_bits(ptr noundef %0, i32 noundef %1, i32 noundef %2) #3 {
  %4 = alloca ptr, align 8
  %5 = alloca i32, align 4
  %6 = alloca i32, align 4
  store ptr %0, ptr %4, align 8, !tbaa !4
  store i32 %1, ptr %5, align 4, !tbaa !9
  store i32 %2, ptr %6, align 4, !tbaa !9
  %7 = load ptr, ptr %4, align 8, !tbaa !4
  %8 = load i32, ptr %5, align 4, !tbaa !9
  %9 = load i32, ptr %6, align 4, !tbaa !9
  call void @put_bits_no_assert(ptr noundef %7, i32 noundef %8, i32 noundef %9)
  ret void
}

; Function Attrs: nounwind uwtable
define void @ff_h263_encode_mba(ptr noundef %0) #2 {
  %2 = alloca ptr, align 8
  %3 = alloca i32, align 4
  %4 = alloca i32, align 4
  store ptr %0, ptr %2, align 8, !tbaa !20
  call void @llvm.lifetime.start.p0(i64 4, ptr %3) #11
  call void @llvm.lifetime.start.p0(i64 4, ptr %4) #11
  store i32 0, ptr %3, align 4, !tbaa !9
  br label %5

5:                                                ; preds = %22, %1
  %6 = load i32, ptr %3, align 4, !tbaa !9
  %7 = icmp slt i32 %6, 6
  br i1 %7, label %8, label %25

8:                                                ; preds = %5
  %9 = load ptr, ptr %2, align 8, !tbaa !20
  %10 = getelementptr inbounds nuw %struct.MPVEncContext, ptr %9, i32 0, i32 0
  %11 = getelementptr inbounds nuw %struct.MpegEncContext, ptr %10, i32 0, i32 31
  %12 = load i32, ptr %11, align 4, !tbaa !58
  %13 = sub nsw i32 %12, 1
  %14 = load i32, ptr %3, align 4, !tbaa !9
  %15 = sext i32 %14 to i64
  %16 = getelementptr inbounds [6 x i16], ptr @ff_mba_max, i64 0, i64 %15
  %17 = load i16, ptr %16, align 2, !tbaa !62
  %18 = zext i16 %17 to i32
  %19 = icmp sle i32 %13, %18
  br i1 %19, label %20, label %21

20:                                               ; preds = %8
  br label %25

21:                                               ; preds = %8
  br label %22

22:                                               ; preds = %21
  %23 = load i32, ptr %3, align 4, !tbaa !9
  %24 = add nsw i32 %23, 1
  store i32 %24, ptr %3, align 4, !tbaa !9
  br label %5, !llvm.loop !63

25:                                               ; preds = %20, %5
  %26 = load ptr, ptr %2, align 8, !tbaa !20
  %27 = getelementptr inbounds nuw %struct.MPVEncContext, ptr %26, i32 0, i32 0
  %28 = getelementptr inbounds nuw %struct.MpegEncContext, ptr %27, i32 0, i32 82
  %29 = load i32, ptr %28, align 4, !tbaa !64
  %30 = load ptr, ptr %2, align 8, !tbaa !20
  %31 = getelementptr inbounds nuw %struct.MPVEncContext, ptr %30, i32 0, i32 0
  %32 = getelementptr inbounds nuw %struct.MpegEncContext, ptr %31, i32 0, i32 25
  %33 = load i32, ptr %32, align 4, !tbaa !65
  %34 = load ptr, ptr %2, align 8, !tbaa !20
  %35 = getelementptr inbounds nuw %struct.MPVEncContext, ptr %34, i32 0, i32 0
  %36 = getelementptr inbounds nuw %struct.MpegEncContext, ptr %35, i32 0, i32 83
  %37 = load i32, ptr %36, align 8, !tbaa !66
  %38 = mul nsw i32 %33, %37
  %39 = add nsw i32 %29, %38
  store i32 %39, ptr %4, align 4, !tbaa !9
  %40 = load ptr, ptr %2, align 8, !tbaa !20
  %41 = getelementptr inbounds nuw %struct.MPVEncContext, ptr %40, i32 0, i32 1
  %42 = load i32, ptr %3, align 4, !tbaa !9
  %43 = sext i32 %42 to i64
  %44 = getelementptr inbounds [7 x i8], ptr @ff_mba_length, i64 0, i64 %43
  %45 = load i8, ptr %44, align 1, !tbaa !11
  %46 = zext i8 %45 to i32
  %47 = load i32, ptr %4, align 4, !tbaa !9
  call void @put_bits(ptr noundef %41, i32 noundef %46, i32 noundef %47)
  call void @llvm.lifetime.end.p0(i64 4, ptr %4) #11
  call void @llvm.lifetime.end.p0(i64 4, ptr %3) #11
  ret void
}