; Function Attrs: nounwind uwtable
define void @ff_h263_encode_mba(ptr noundef captures(none) %0) local_unnamed_addr #2 {
  %2 = getelementptr inbounds nuw i8, ptr %0, i64 564
  %3 = load i32, ptr %2, align 4, !tbaa !52
  %4 = add nsw i32 %3, -1
  br label %5

5:                                                ; preds = %1, %9
  %indvars.iv = phi i64 [ 0, %1 ], [ %indvars.iv.next, %9 ]
  %6 = getelementptr inbounds nuw [6 x i16], ptr @ff_mba_max, i64 0, i64 %indvars.iv
  %7 = load i16, ptr %6, align 2, !tbaa !53
  %8 = zext i16 %7 to i32
  %.not = icmp sgt i32 %4, %8
  br i1 %.not, label %9, label %10

9:                                                ; preds = %5
  %indvars.iv.next = add nuw nsw i64 %indvars.iv, 1
  %exitcond.not = icmp eq i64 %indvars.iv.next, 6
  br i1 %exitcond.not, label %10, label %5, !llvm.loop !54

10:                                               ; preds = %5, %9
  %.0.lcssa = phi i64 [ %indvars.iv, %5 ], [ 6, %9 ]
  %11 = getelementptr inbounds nuw i8, ptr %0, i64 3348
  %12 = load i32, ptr %11, align 4, !tbaa !55
  %13 = getelementptr inbounds nuw i8, ptr %0, i64 540
  %14 = load i32, ptr %13, align 4, !tbaa !56
  %15 = getelementptr inbounds nuw i8, ptr %0, i64 3352
  %16 = load i32, ptr %15, align 8, !tbaa !57
  %17 = mul nsw i32 %16, %14
  %18 = add nsw i32 %17, %12
  %19 = getelementptr inbounds nuw i8, ptr %0, i64 4808
  %20 = and i64 %.0.lcssa, 4294967295
  %21 = getelementptr inbounds nuw [7 x i8], ptr @ff_mba_length, i64 0, i64 %20
  %22 = load i8, ptr %21, align 1, !tbaa !14
  %23 = zext i8 %22 to i32
  %24 = load i32, ptr %19, align 8, !tbaa !4
  %25 = getelementptr inbounds nuw i8, ptr %0, i64 4812
  %26 = load i32, ptr %25, align 4, !tbaa !11
  %27 = icmp sgt i32 %26, %23
  br i1 %27, label %28, label %32

28:                                               ; preds = %10
  %29 = shl i32 %24, %23
  %30 = or i32 %29, %18
  %31 = sub nsw i32 %26, %23
  br label %put_bits.exit

32:                                               ; preds = %10
  %33 = getelementptr inbounds nuw i8, ptr %0, i64 4832
  %34 = load ptr, ptr %33, align 8, !tbaa !12
  %35 = getelementptr inbounds nuw i8, ptr %0, i64 4824
  %36 = load ptr, ptr %35, align 8, !tbaa !13
  %37 = ptrtoint ptr %34 to i64
  %38 = ptrtoint ptr %36 to i64
  %39 = sub i64 %37, %38
  %40 = icmp ugt i64 %39, 3
  br i1 %40, label %41, label %49

41:                                               ; preds = %32
  %42 = shl i32 %24, %26
  %43 = sub nsw i32 %23, %26
  %44 = lshr i32 %18, %43
  %45 = or i32 %44, %42
  %46 = tail call i32 @llvm.bswap.i32(i32 %45)
  store i32 %46, ptr %36, align 1, !tbaa !14
  %47 = load ptr, ptr %35, align 8, !tbaa !13
  %48 = getelementptr inbounds nuw i8, ptr %47, i64 4
  store ptr %48, ptr %35, align 8, !tbaa !13
  br label %50

49:                                               ; preds = %32
  tail call void (ptr, i32, ptr, ...) @av_log(ptr noundef null, i32 noundef 16, ptr noundef nonnull @.str.5) #11
  br label %50

50:                                               ; preds = %49, %41
  %reass.sub = sub i32 %26, %23
  %51 = add i32 %reass.sub, 32
  br label %put_bits.exit

put_bits.exit:                                    ; preds = %28, %50
  %.026.i.i = phi i32 [ %30, %28 ], [ %18, %50 ]
  %.0.i.i = phi i32 [ %31, %28 ], [ %51, %50 ]
  store i32 %.026.i.i, ptr %19, align 8, !tbaa !4
  store i32 %.0.i.i, ptr %25, align 4, !tbaa !11
  ret void
}